target datalayout = "e-m:e-p270:32:32-p271:32:32-p272:64:64-i64:64-i128:128-f80:128-n8:16:32:64-S128"
target triple = "x86_64-pc-linux-gnu"

%struct.t_trxframe = type { i32, i8, i32, i8, i64, i8, float, i8, i8, float, i32, i8, ptr, i8, float, i8, ptr, i8, ptr, i8, ptr, i8, [3 x [3 x float]], i8, i32, i8, ptr }
%"class.std::__cxx11::basic_string" = type { %"struct.std::__cxx11::basic_string<char>::_Alloc_hider", i64, %union.anon }
%"struct.std::__cxx11::basic_string<char>::_Alloc_hider" = type { ptr }
%union.anon = type { i64, [8 x i8] }
%"class.gmx::TrajectoryFrame" = type <{ ptr, %"struct.std::array", [4 x i8] }>
%"struct.std::array" = type { [3 x %"struct.std::array.0"] }
%"struct.std::array.0" = type { [3 x float] }

@.str.28 = private unnamed_addr constant [17 x i8] c"Time %f Step %ld\00", align 1

; Function Attrs: mustprogress uwtable
define void @_ZNK3gmx15TrajectoryFrame9frameNameB5cxx11Ev(ptr dead_on_unwind noalias writable sret(%"class.std::__cxx11::basic_string") align 8 %0, ptr noundef nonnull align 8 dereferenceable(44) %1) #0 align 2 {
  %3 = alloca ptr, align 8
  %4 = alloca ptr, align 8
  store ptr %0, ptr %3, align 8
  store ptr %1, ptr %4, align 8, !tbaa !49
  %5 = load ptr, ptr %4, align 8
  %6 = getelementptr inbounds nuw %"class.gmx::TrajectoryFrame", ptr %5, i32 0, i32 0
  %7 = load ptr, ptr %6, align 8, !tbaa !170
  %8 = getelementptr inbounds nuw %struct.t_trxframe, ptr %7, i32 0, i32 6
  %9 = load float, ptr %8, align 4, !tbaa !29
  %10 = fpext float %9 to double
  %11 = getelementptr inbounds nuw %"class.gmx::TrajectoryFrame", ptr %5, i32 0, i32 0
  %12 = load ptr, ptr %11, align 8, !tbaa !170
  %13 = getelementptr inbounds nuw %struct.t_trxframe, ptr %12, i32 0, i32 4
  %14 = load i64, ptr %13, align 8, !tbaa !27
  call void (ptr, ptr, ...) @_ZN3gmx12formatStringB5cxx11EPKcz(ptr dead_on_unwind writable sret(%"class.std::__cxx11::basic_string") align 8 %0, ptr noundef @.str.28, double noundef %10, i64 noundef %14)
  ret void
}