; Function Attrs: mustprogress uwtable
define void @_ZNK3gmx15TrajectoryFrame9frameNameB5cxx11Ev(ptr dead_on_unwind noalias writable sret(%"class.std::__cxx11::basic_string") align 8 %0, ptr noundef nonnull readonly align 8 captures(none) dereferenceable(44) %1) local_unnamed_addr #0 align 2 {
  %3 = load ptr, ptr %1, align 8, !tbaa !79
  %4 = getelementptr inbounds nuw i8, ptr %3, i64 28
  %5 = load float, ptr %4, align 4, !tbaa !23
  %6 = fpext float %5 to double
  %7 = getelementptr inbounds nuw i8, ptr %3, i64 16
  %8 = load i64, ptr %7, align 8, !tbaa !21
  tail call void (ptr, ptr, ...) @_ZN3gmx12formatStringB5cxx11EPKcz(ptr dead_on_unwind writable sret(%"class.std::__cxx11::basic_string") align 8 %0, ptr noundef nonnull @.str.28, double noundef %6, i64 noundef %8)
  ret void
}